; Function Attrs: nounwind sspstrong uwtable
define dso_local void @tcg_tb_foreach(ptr noundef %0, ptr noundef %1) local_unnamed_addr #1 {
  %3 = load i64, ptr getelementptr inbounds nuw (i8, ptr @region, i64 64), align 8
  %.not.i = icmp eq i64 %3, 0
  br i1 %.not.i, label %tcg_region_tree_unlock_all.exit, label %.lr.ph.i

.lr.ph.i:                                         ; preds = %2, %.lr.ph.i
  %.06.i = phi i64 [ %10, %.lr.ph.i ], [ 0, %2 ]
  %4 = load ptr, ptr @region_trees, align 8
  %5 = load i64, ptr @tree_size, align 8
  %6 = mul i64 %5, %.06.i
  %7 = getelementptr inbounds nuw i8, ptr %4, i64 %6
  %8 = load atomic i64, ptr @qemu_mutex_lock_func monotonic, align 8
  %9 = inttoptr i64 %8 to ptr
  tail call void %9(ptr noundef %7, ptr noundef nonnull @.str, i32 noundef 271) #12
  %10 = add nuw i64 %.06.i, 1
  %11 = load i64, ptr getelementptr inbounds nuw (i8, ptr @region, i64 64), align 8
  %12 = icmp ult i64 %10, %11
  br i1 %12, label %.lr.ph.i, label %tcg_region_tree_lock_all.exit, !llvm.loop !5

tcg_region_tree_lock_all.exit:                    ; preds = %.lr.ph.i
  %13 = icmp eq i64 %11, 0
  br i1 %13, label %tcg_region_tree_unlock_all.exit, label %.lr.ph

.lr.ph:                                           ; preds = %tcg_region_tree_lock_all.exit, %.lr.ph
  %.07 = phi i64 [ %20, %.lr.ph ], [ 0, %tcg_region_tree_lock_all.exit ]
  %14 = load ptr, ptr @region_trees, align 8
  %15 = load i64, ptr @tree_size, align 8
  %16 = mul i64 %15, %.07
  %17 = getelementptr inbounds nuw i8, ptr %14, i64 %16
  %18 = getelementptr inbounds nuw i8, ptr %17, i64 48
  %19 = load ptr, ptr %18, align 8
  tail call void @q_tree_foreach(ptr noundef %19, ptr noundef %0, ptr noundef %1) #12
  %20 = add nuw i64 %.07, 1
  %21 = load i64, ptr getelementptr inbounds nuw (i8, ptr @region, i64 64), align 8
  %22 = icmp ult i64 %20, %21
  br i1 %22, label %.lr.ph, label %._crit_edge, !llvm.loop !7

._crit_edge:                                      ; preds = %.lr.ph
  %23 = icmp eq i64 %21, 0
  br i1 %23, label %tcg_region_tree_unlock_all.exit, label %.lr.ph.i6

.lr.ph.i6:                                        ; preds = %._crit_edge, %.lr.ph.i6
  %.03.i = phi i64 [ %28, %.lr.ph.i6 ], [ 0, %._crit_edge ]
  %24 = load ptr, ptr @region_trees, align 8
  %25 = load i64, ptr @tree_size, align 8
  %26 = mul i64 %25, %.03.i
  %27 = getelementptr inbounds nuw i8, ptr %24, i64 %26
  tail call void @qemu_mutex_unlock_impl(ptr noundef %27, ptr noundef nonnull @.str, i32 noundef 282) #12
  %28 = add nuw i64 %.03.i, 1
  %29 = load i64, ptr getelementptr inbounds nuw (i8, ptr @region, i64 64), align 8
  %30 = icmp ult i64 %28, %29
  br i1 %30, label %.lr.ph.i6, label %tcg_region_tree_unlock_all.exit, !llvm.loop !8

tcg_region_tree_unlock_all.exit:                  ; preds = %.lr.ph.i6, %2, %tcg_region_tree_lock_all.exit, %._crit_edge
  ret void
}